target datalayout = "e-m:e-p270:32:32-p271:32:32-p272:64:64-i64:64-i128:128-f80:128-n8:16:32:64-S128"
target triple = "x86_64-pc-linux-gnu"

%"class.llvm::iterator_range" = type { %"class.llvm::bf_iterator", %"class.llvm::bf_iterator" }
%"class.llvm::bf_iterator" = type <{ %"class.llvm::bf_iterator_storage", %"class.std::queue", i32, [4 x i8] }>
%"class.llvm::bf_iterator_storage" = type { %"class.llvm::SmallPtrSet.5" }
%"class.llvm::SmallPtrSet.5" = type { %"class.llvm::SmallPtrSetImpl.base.7", [8 x ptr] }
%"class.llvm::SmallPtrSetImpl.base.7" = type { %"class.llvm::SmallPtrSetImplBase.base" }
%"class.llvm::SmallPtrSetImplBase.base" = type <{ ptr, ptr, i32, i32, i32 }>
%"class.std::queue" = type { %"class.std::deque" }
%"class.std::deque" = type { %"class.std::_Deque_base" }
%"class.std::_Deque_base" = type { %"struct.std::_Deque_base<std::optional<std::pair<llvm::Loop *, std::optional<__gnu_cxx::__normal_iterator<llvm::Loop *const *, std::vector<llvm::Loop *>>>>>, std::allocator<std::optional<std::pair<llvm::Loop *, std::optional<__gnu_cxx::__normal_iterator<llvm::Loop *const *, std::vector<llvm::Loop *>>>>>>>::_Deque_impl" }
%"struct.std::_Deque_base<std::optional<std::pair<llvm::Loop *, std::optional<__gnu_cxx::__normal_iterator<llvm::Loop *const *, std::vector<llvm::Loop *>>>>>, std::allocator<std::optional<std::pair<llvm::Loop *, std::optional<__gnu_cxx::__normal_iterator<llvm::Loop *const *, std::vector<llvm::Loop *>>>>>>>::_Deque_impl" = type { %"struct.std::_Deque_base<std::optional<std::pair<llvm::Loop *, std::optional<__gnu_cxx::__normal_iterator<llvm::Loop *const *, std::vector<llvm::Loop *>>>>>, std::allocator<std::optional<std::pair<llvm::Loop *, std::optional<__gnu_cxx::__normal_iterator<llvm::Loop *const *, std::vector<llvm::Loop *>>>>>>>::_Deque_impl_data" }
%"struct.std::_Deque_base<std::optional<std::pair<llvm::Loop *, std::optional<__gnu_cxx::__normal_iterator<llvm::Loop *const *, std::vector<llvm::Loop *>>>>>, std::allocator<std::optional<std::pair<llvm::Loop *, std::optional<__gnu_cxx::__normal_iterator<llvm::Loop *const *, std::vector<llvm::Loop *>>>>>>>::_Deque_impl_data" = type { ptr, i64, %"struct.std::_Deque_iterator", %"struct.std::_Deque_iterator" }
%"struct.std::_Deque_iterator" = type { ptr, ptr, ptr, ptr }
%"class.llvm::LoopNest" = type { i32, %"class.llvm::SmallVector" }
%"class.llvm::SmallVector" = type { %"class.llvm::SmallVectorImpl", %"struct.llvm::SmallVectorStorage" }
%"class.llvm::SmallVectorImpl" = type { %"class.llvm::SmallVectorTemplateBase" }
%"class.llvm::SmallVectorTemplateBase" = type { %"class.llvm::SmallVectorTemplateCommon" }
%"class.llvm::SmallVectorTemplateCommon" = type { %"class.llvm::SmallVectorBase" }
%"class.llvm::SmallVectorBase" = type { ptr, i32, i32 }
%"struct.llvm::SmallVectorStorage" = type { [64 x i8] }
%"class.__gnu_cxx::__normal_iterator" = type { ptr }
%"struct.std::_Vector_base" = type { %"struct.std::_Vector_base<llvm::Loop *, std::allocator<llvm::Loop *>>::_Vector_impl" }
%"struct.std::_Vector_base<llvm::Loop *, std::allocator<llvm::Loop *>>::_Vector_impl" = type { %"struct.std::_Vector_base<llvm::Loop *, std::allocator<llvm::Loop *>>::_Vector_impl_data" }
%"struct.std::_Vector_base<llvm::Loop *, std::allocator<llvm::Loop *>>::_Vector_impl_data" = type { ptr, ptr, ptr }

; Function Attrs: mustprogress nounwind uwtable
define linkonce_odr hidden noundef ptr @_ZNK4llvm25SmallVectorTemplateCommonIPNS_4LoopEvE10getFirstElEv(ptr noundef nonnull align 8 dereferenceable(16) %0) #0 comdat align 2 {
  %2 = alloca ptr, align 8
  store ptr %0, ptr %2, align 8
  %3 = load ptr, ptr %2, align 8
  %4 = getelementptr inbounds i8, ptr %3, i64 16
  ret ptr %4
}

; Function Attrs: mustprogress nounwind uwtable
define linkonce_odr hidden void @_ZN4llvm25SmallVectorTemplateCommonIPNS_4LoopEvEC2Em(ptr noundef nonnull align 8 dereferenceable(16) %0, i64 noundef %1) unnamed_addr #0 comdat align 2 {
  %3 = alloca ptr, align 8
  %4 = alloca i64, align 8
  store ptr %0, ptr %3, align 8
  store i64 %1, ptr %4, align 8
  %5 = load ptr, ptr %3, align 8
  %6 = call noundef ptr @_ZNK4llvm25SmallVectorTemplateCommonIPNS_4LoopEvE10getFirstElEv(ptr noundef nonnull align 8 dereferenceable(16) %5)
  %7 = load i64, ptr %4, align 8
  call void @_ZN4llvm15SmallVectorBaseIjEC2EPvm(ptr noundef nonnull align 8 dereferenceable(16) %5, ptr noundef %6, i64 noundef %7)
  ret void
}

; Function Attrs: mustprogress nounwind uwtable
define linkonce_odr hidden void @_ZN9__gnu_cxx17__normal_iteratorIPKPN4llvm4LoopESt6vectorIS3_SaIS3_EEEC2ERKS5_(ptr noundef nonnull align 8 dereferenceable(8) %0, ptr noundef nonnull align 8 dereferenceable(8) %1) unnamed_addr #0 comdat align 2 {
  %3 = alloca ptr, align 8
  %4 = alloca ptr, align 8
  store ptr %0, ptr %3, align 8
  store ptr %1, ptr %4, align 8
  %5 = load ptr, ptr %3, align 8
  %6 = getelementptr inbounds nuw %"class.__gnu_cxx::__normal_iterator", ptr %5, i32 0, i32 0
  %7 = load ptr, ptr %4, align 8
  %8 = load ptr, ptr %7, align 8
  store ptr %8, ptr %6, align 8
  ret void
}

; Function Attrs: mustprogress nounwind uwtable
define linkonce_odr hidden void @_ZN4llvm23SmallVectorTemplateBaseIPNS_4LoopELb1EEC2Em(ptr noundef nonnull align 8 dereferenceable(16) %0, i64 noundef %1) unnamed_addr #0 comdat align 2 {
  %3 = alloca ptr, align 8
  %4 = alloca i64, align 8
  store ptr %0, ptr %3, align 8
  store i64 %1, ptr %4, align 8
  %5 = load ptr, ptr %3, align 8
  %6 = load i64, ptr %4, align 8
  call void @_ZN4llvm25SmallVectorTemplateCommonIPNS_4LoopEvEC2Em(ptr noundef nonnull align 8 dereferenceable(16) %5, i64 noundef %6)
  ret void
}

; Function Attrs: mustprogress nounwind uwtable
define linkonce_odr hidden noundef nonnull align 8 dereferenceable(8) ptr @_ZNK9__gnu_cxx17__normal_iteratorIPKPN4llvm4LoopESt6vectorIS3_SaIS3_EEEdeEv(ptr noundef nonnull align 8 dereferenceable(8) %0) #0 comdat align 2 {
  %2 = alloca ptr, align 8
  store ptr %0, ptr %2, align 8
  %3 = load ptr, ptr %2, align 8
  %4 = getelementptr inbounds nuw %"class.__gnu_cxx::__normal_iterator", ptr %3, i32 0, i32 0
  %5 = load ptr, ptr %4, align 8
  ret ptr %5
}

; Function Attrs: mustprogress nounwind uwtable
define linkonce_odr hidden ptr @_ZNKSt6vectorIPN4llvm4LoopESaIS2_EE5beginEv(ptr noundef nonnull align 8 dereferenceable(24) %0) #0 comdat align 2 {
  %2 = alloca %"class.__gnu_cxx::__normal_iterator", align 8
  %3 = alloca ptr, align 8
  store ptr %0, ptr %3, align 8
  %4 = load ptr, ptr %3, align 8
  %5 = getelementptr inbounds nuw %"struct.std::_Vector_base", ptr %4, i32 0, i32 0
  %6 = getelementptr inbounds nuw %"struct.std::_Vector_base<llvm::Loop *, std::allocator<llvm::Loop *>>::_Vector_impl_data", ptr %5, i32 0, i32 0
  call void @_ZN9__gnu_cxx17__normal_iteratorIPKPN4llvm4LoopESt6vectorIS3_SaIS3_EEEC2ERKS5_(ptr noundef nonnull align 8 dereferenceable(8) %2, ptr noundef nonnull align 8 dereferenceable(8) %6) #10
  %7 = getelementptr inbounds nuw %"class.__gnu_cxx::__normal_iterator", ptr %2, i32 0, i32 0
  %8 = load ptr, ptr %7, align 8
  ret ptr %8
}

; Function Attrs: mustprogress nounwind uwtable
define linkonce_odr hidden void @_ZN4llvm15SmallVectorImplIPNS_4LoopEEC2Ej(ptr noundef nonnull align 8 dereferenceable(16) %0, i32 noundef %1) unnamed_addr #0 comdat align 2 {
  %3 = alloca ptr, align 8
  %4 = alloca i32, align 4
  store ptr %0, ptr %3, align 8
  store i32 %1, ptr %4, align 4
  %5 = load ptr, ptr %3, align 8
  %6 = load i32, ptr %4, align 4
  %7 = zext i32 %6 to i64
  call void @_ZN4llvm23SmallVectorTemplateBaseIPNS_4LoopELb1EEC2Em(ptr noundef nonnull align 8 dereferenceable(16) %5, i64 noundef %7)
  ret void
}

; Function Attrs: mustprogress nounwind uwtable
define dso_local noundef zeroext i1 @_ZN4llvm8LoopNest18arePerfectlyNestedERKNS_4LoopES3_RNS_15ScalarEvolutionE(ptr noundef nonnull align 8 dereferenceable(152) %0, ptr noundef nonnull align 8 dereferenceable(152) %1, ptr noundef nonnull align 1 %2) #0 align 2 {
  %4 = alloca ptr, align 8
  %5 = alloca ptr, align 8
  %6 = alloca ptr, align 8
  store ptr %0, ptr %4, align 8
  store ptr %1, ptr %5, align 8
  store ptr %2, ptr %6, align 8
  %7 = load ptr, ptr %4, align 8
  %8 = load ptr, ptr %5, align 8
  %9 = load ptr, ptr %6, align 8
  %10 = call noundef i32 @_ZN4llvm8LoopNest29analyzeLoopNestForPerfectNestERKNS_4LoopES3_RNS_15ScalarEvolutionE(ptr noundef nonnull align 8 dereferenceable(152) %7, ptr noundef nonnull align 8 dereferenceable(152) %8, ptr noundef nonnull align 1 %9)
  %11 = icmp eq i32 %10, 0
  ret i1 %11
}

; Function Attrs: mustprogress nounwind uwtable
define linkonce_odr hidden noundef nonnull align 8 dereferenceable(8) ptr @_ZNKSt6vectorIPN4llvm4LoopESaIS2_EE5frontEv(ptr noundef nonnull align 8 dereferenceable(24) %0) #0 comdat align 2 {
  %2 = alloca ptr, align 8
  %3 = alloca %"class.__gnu_cxx::__normal_iterator", align 8
  store ptr %0, ptr %2, align 8
  %4 = load ptr, ptr %2, align 8
  %5 = call ptr @_ZNKSt6vectorIPN4llvm4LoopESaIS2_EE5beginEv(ptr noundef nonnull align 8 dereferenceable(24) %4) #10
  %6 = getelementptr inbounds nuw %"class.__gnu_cxx::__normal_iterator", ptr %3, i32 0, i32 0
  store ptr %5, ptr %6, align 8
  %7 = call noundef nonnull align 8 dereferenceable(8) ptr @_ZNK9__gnu_cxx17__normal_iteratorIPKPN4llvm4LoopESt6vectorIS3_SaIS3_EEEdeEv(ptr noundef nonnull align 8 dereferenceable(8) %3) #10
  ret ptr %7
}

; Function Attrs: mustprogress nounwind uwtable
define linkonce_odr hidden noundef i64 @_ZNKSt6vectorIPN4llvm4LoopESaIS2_EE4sizeEv(ptr noundef nonnull align 8 dereferenceable(24) %0) #0 comdat align 2 {
  %2 = alloca ptr, align 8
  store ptr %0, ptr %2, align 8
  %3 = load ptr, ptr %2, align 8
  %4 = getelementptr inbounds nuw %"struct.std::_Vector_base", ptr %3, i32 0, i32 0
  %5 = getelementptr inbounds nuw %"struct.std::_Vector_base<llvm::Loop *, std::allocator<llvm::Loop *>>::_Vector_impl_data", ptr %4, i32 0, i32 1
  %6 = load ptr, ptr %5, align 8
  %7 = getelementptr inbounds nuw %"struct.std::_Vector_base", ptr %3, i32 0, i32 0
  %8 = getelementptr inbounds nuw %"struct.std::_Vector_base<llvm::Loop *, std::allocator<llvm::Loop *>>::_Vector_impl_data", ptr %7, i32 0, i32 0
  %9 = load ptr, ptr %8, align 8
  %10 = ptrtoint ptr %6 to i64
  %11 = ptrtoint ptr %9 to i64
  %12 = sub i64 %10, %11
  %13 = sdiv exact i64 %12, 8
  ret i64 %13
}

; Function Attrs: mustprogress nounwind uwtable
define linkonce_odr hidden void @_ZN4llvm11SmallVectorIPNS_4LoopELj8EEC2Ev(ptr noundef nonnull align 8 dereferenceable(80) %0) unnamed_addr #0 comdat align 2 {
  %2 = alloca ptr, align 8
  store ptr %0, ptr %2, align 8
  %3 = load ptr, ptr %2, align 8
  call void @_ZN4llvm15SmallVectorImplIPNS_4LoopEEC2Ej(ptr noundef nonnull align 8 dereferenceable(16) %3, i32 noundef 8)
  ret void
}

; Function Attrs: mustprogress nounwind uwtable
define dso_local noundef i32 @_ZN4llvm8LoopNest18getMaxPerfectDepthERKNS_4LoopERNS_15ScalarEvolutionE(ptr noundef nonnull align 8 dereferenceable(152) %0, ptr noundef nonnull align 1 %1) #0 align 2 {
  %3 = alloca ptr, align 8
  %4 = alloca ptr, align 8
  %5 = alloca ptr, align 8
  %6 = alloca ptr, align 8
  %7 = alloca i32, align 4
  %8 = alloca ptr, align 8
  store ptr %0, ptr %3, align 8
  store ptr %1, ptr %4, align 8
  br label %9

9:                                                ; preds = %2
  br label %10

10:                                               ; preds = %9
  %11 = load ptr, ptr %3, align 8
  store ptr %11, ptr %5, align 8
  %12 = load ptr, ptr %5, align 8
  %13 = call noundef nonnull align 8 dereferenceable(24) ptr @_ZNK4llvm8LoopBaseINS_10BasicBlockENS_4LoopEE11getSubLoopsEv(ptr noundef nonnull align 8 dereferenceable(152) %12)
  store ptr %13, ptr %6, align 8
  store i32 1, ptr %7, align 4
  br label %14

14:                                               ; preds = %29, %10
  %15 = load ptr, ptr %6, align 8
  %16 = call noundef i64 @_ZNKSt6vectorIPN4llvm4LoopESaIS2_EE4sizeEv(ptr noundef nonnull align 8 dereferenceable(24) %15) #10
  %17 = icmp eq i64 %16, 1
  br i1 %17, label %18, label %35

18:                                               ; preds = %14
  %19 = load ptr, ptr %6, align 8
  %20 = call noundef nonnull align 8 dereferenceable(8) ptr @_ZNKSt6vectorIPN4llvm4LoopESaIS2_EE5frontEv(ptr noundef nonnull align 8 dereferenceable(24) %19) #10
  %21 = load ptr, ptr %20, align 8
  store ptr %21, ptr %8, align 8
  %22 = load ptr, ptr %5, align 8
  %23 = load ptr, ptr %8, align 8
  %24 = load ptr, ptr %4, align 8
  %25 = call noundef zeroext i1 @_ZN4llvm8LoopNest18arePerfectlyNestedERKNS_4LoopES3_RNS_15ScalarEvolutionE(ptr noundef nonnull align 8 dereferenceable(152) %22, ptr noundef nonnull align 8 dereferenceable(152) %23, ptr noundef nonnull align 1 %24)
  br i1 %25, label %29, label %26

26:                                               ; preds = %18
  br label %27

27:                                               ; preds = %26
  br label %28

28:                                               ; preds = %27
  br label %35

29:                                               ; preds = %18
  %30 = load ptr, ptr %8, align 8
  store ptr %30, ptr %5, align 8
  %31 = load ptr, ptr %5, align 8
  %32 = call noundef nonnull align 8 dereferenceable(24) ptr @_ZNK4llvm8LoopBaseINS_10BasicBlockENS_4LoopEE11getSubLoopsEv(ptr noundef nonnull align 8 dereferenceable(152) %31)
  store ptr %32, ptr %6, align 8
  %33 = load i32, ptr %7, align 4
  %34 = add i32 %33, 1
  store i32 %34, ptr %7, align 4
  br label %14, !llvm.loop !4

35:                                               ; preds = %28, %14
  %36 = load i32, ptr %7, align 4
  ret i32 %36
}

; Function Attrs: mustprogress nounwind uwtable
define dso_local void @_ZN4llvm8LoopNestC2ERNS_4LoopERNS_15ScalarEvolutionE(ptr noundef nonnull align 8 dereferenceable(88) %0, ptr noundef nonnull align 8 dereferenceable(152) %1, ptr noundef nonnull align 1 %2) unnamed_addr #0 align 2 {
  %4 = alloca ptr, align 8
  %5 = alloca ptr, align 8
  %6 = alloca ptr, align 8
  %7 = alloca %"class.llvm::iterator_range", align 8
  %8 = alloca ptr, align 8
  store ptr %0, ptr %4, align 8
  store ptr %1, ptr %5, align 8
  store ptr %2, ptr %6, align 8
  %9 = load ptr, ptr %4, align 8
  %10 = getelementptr inbounds nuw %"class.llvm::LoopNest", ptr %9, i32 0, i32 0
  %11 = load ptr, ptr %5, align 8
  %12 = load ptr, ptr %6, align 8
  %13 = call noundef i32 @_ZN4llvm8LoopNest18getMaxPerfectDepthERKNS_4LoopERNS_15ScalarEvolutionE(ptr noundef nonnull align 8 dereferenceable(152) %11, ptr noundef nonnull align 1 %12)
  store i32 %13, ptr %10, align 8
  %14 = getelementptr inbounds nuw %"class.llvm::LoopNest", ptr %9, i32 0, i32 1
  call void @_ZN4llvm11SmallVectorIPNS_4LoopELj8EEC2Ev(ptr noundef nonnull align 8 dereferenceable(80) %14)
  %15 = getelementptr inbounds nuw %"class.llvm::LoopNest", ptr %9, i32 0, i32 1
  %16 = load ptr, ptr %5, align 8
  store ptr %16, ptr %8, align 8
  call void @_ZN4llvm13breadth_firstIPNS_4LoopEEENS_14iterator_rangeINS_11bf_iteratorIT_NS_11SmallPtrSetINS_11GraphTraitsIS5_E7NodeRefELj8EEES8_EEEERKS5_(ptr dead_on_unwind writable sret(%"class.llvm::iterator_range") align 8 %7, ptr noundef nonnull align 8 dereferenceable(8) %8)
  call void @_ZN4llvm12append_rangeINS_11SmallVectorIPNS_4LoopELj8EEENS_14iterator_rangeINS_11bf_iteratorIS3_NS_11SmallPtrSetIS3_Lj8EEENS_11GraphTraitsIS3_EEEEEEEEvRT_OT0_(ptr noundef nonnull align 8 dereferenceable(80) %15, ptr noundef nonnull align 8 dereferenceable(368) %7)
  call void @_ZN4llvm14iterator_rangeINS_11bf_iteratorIPNS_4LoopENS_11SmallPtrSetIS3_Lj8EEENS_11GraphTraitsIS3_EEEEED2Ev(ptr noundef nonnull align 8 dereferenceable(368) %7) #10
  ret void
}