; Function Attrs: mustprogress nounwind uwtable
define dso_local void @_ZN4llvm8LoopNestC2ERNS_4LoopERNS_15ScalarEvolutionE(ptr noundef nonnull align 8 dereferenceable(88) %0, ptr noundef nonnull align 8 dereferenceable(152) %1, ptr noundef nonnull align 1 %2) unnamed_addr #0 align 2 {
  %4 = alloca %"class.llvm::iterator_range", align 8
  %5 = alloca ptr, align 8
  %6 = tail call noundef nonnull align 8 dereferenceable(24) ptr @_ZNK4llvm8LoopBaseINS_10BasicBlockENS_4LoopEE11getSubLoopsEv(ptr noundef nonnull align 8 dereferenceable(152) %1) #12
  %7 = getelementptr inbounds nuw i8, ptr %6, i64 8
  %8 = load ptr, ptr %7, align 8
  %9 = load ptr, ptr %6, align 8
  %10 = ptrtoint ptr %8 to i64
  %11 = ptrtoint ptr %9 to i64
  %12 = sub i64 %10, %11
  %13 = icmp eq i64 %12, 8
  br i1 %13, label %.lr.ph.i, label %_ZN4llvm8LoopNest18getMaxPerfectDepthERKNS_4LoopERNS_15ScalarEvolutionE.exit

.lr.ph.i:                                         ; preds = %3, %18
  %14 = phi ptr [ %23, %18 ], [ %9, %3 ]
  %.013.i = phi ptr [ %15, %18 ], [ %1, %3 ]
  %.01012.i = phi i32 [ %20, %18 ], [ 1, %3 ]
  %15 = load ptr, ptr %14, align 8
  %16 = tail call noundef i32 @_ZN4llvm8LoopNest29analyzeLoopNestForPerfectNestERKNS_4LoopES3_RNS_15ScalarEvolutionE(ptr noundef nonnull align 8 dereferenceable(152) %.013.i, ptr noundef nonnull align 8 dereferenceable(152) %15, ptr noundef nonnull align 1 %2)
  %17 = icmp eq i32 %16, 0
  br i1 %17, label %18, label %_ZN4llvm8LoopNest18getMaxPerfectDepthERKNS_4LoopERNS_15ScalarEvolutionE.exit

18:                                               ; preds = %.lr.ph.i
  %19 = tail call noundef nonnull align 8 dereferenceable(24) ptr @_ZNK4llvm8LoopBaseINS_10BasicBlockENS_4LoopEE11getSubLoopsEv(ptr noundef nonnull align 8 dereferenceable(152) %15) #12
  %20 = add i32 %.01012.i, 1
  %21 = getelementptr inbounds nuw i8, ptr %19, i64 8
  %22 = load ptr, ptr %21, align 8
  %23 = load ptr, ptr %19, align 8
  %24 = ptrtoint ptr %22 to i64
  %25 = ptrtoint ptr %23 to i64
  %26 = sub i64 %24, %25
  %27 = icmp eq i64 %26, 8
  br i1 %27, label %.lr.ph.i, label %_ZN4llvm8LoopNest18getMaxPerfectDepthERKNS_4LoopERNS_15ScalarEvolutionE.exit, !llvm.loop !4

_ZN4llvm8LoopNest18getMaxPerfectDepthERKNS_4LoopERNS_15ScalarEvolutionE.exit: ; preds = %.lr.ph.i, %18, %3
  %.010.lcssa.i = phi i32 [ 1, %3 ], [ %20, %18 ], [ %.01012.i, %.lr.ph.i ]
  store i32 %.010.lcssa.i, ptr %0, align 8
  %28 = getelementptr inbounds nuw i8, ptr %0, i64 8
  %29 = getelementptr inbounds i8, ptr %0, i64 24
  tail call void @_ZN4llvm15SmallVectorBaseIjEC2EPvm(ptr noundef nonnull align 8 dereferenceable(16) %28, ptr noundef nonnull %29, i64 noundef 8) #12
  store ptr %1, ptr %5, align 8
  call void @_ZN4llvm13breadth_firstIPNS_4LoopEEENS_14iterator_rangeINS_11bf_iteratorIT_NS_11SmallPtrSetINS_11GraphTraitsIS5_E7NodeRefELj8EEES8_EEEERKS5_(ptr dead_on_unwind nonnull writable sret(%"class.llvm::iterator_range") align 8 %4, ptr noundef nonnull align 8 dereferenceable(8) %5)
  call void @_ZN4llvm12append_rangeINS_11SmallVectorIPNS_4LoopELj8EEENS_14iterator_rangeINS_11bf_iteratorIS3_NS_11SmallPtrSetIS3_Lj8EEENS_11GraphTraitsIS3_EEEEEEEEvRT_OT0_(ptr noundef nonnull align 8 dereferenceable(80) %28, ptr noundef nonnull align 8 dereferenceable(368) %4)
  call void @_ZN4llvm14iterator_rangeINS_11bf_iteratorIPNS_4LoopENS_11SmallPtrSetIS3_Lj8EEENS_11GraphTraitsIS3_EEEEED2Ev(ptr noundef nonnull align 8 dereferenceable(368) %4) #12
  ret void
}